target datalayout = "e-m:e-p270:32:32-p271:32:32-p272:64:64-i64:64-i128:128-f80:128-n8:16:32:64-S128"
target triple = "x86_64-pc-linux-gnu"

%struct.GVJ_s = type { ptr, ptr, ptr, ptr, ptr, ptr, i32, ptr, ptr, ptr, ptr, i64, i64, ptr, i32, %struct.gvplugin_active_render_s, %struct.gvplugin_active_device_s, %struct.gvplugin_active_loadimage_t, ptr, %struct.pointf_s, i8, ptr, i32, ptr, i8, ptr, i32, i32, i32, %struct.point, %struct.point, %struct.point, %struct.point, %struct.point, i32, %struct.boxf, %struct.pointf_s, %struct.boxf, %struct.boxf, %struct.pointf_s, %struct.pointf_s, double, i32, %struct.pointf_s, %struct.boxf, %struct.pointf_s, %struct.pointf_s, i32, i32, %struct.box, %struct.box, %struct.pointf_s, %struct.pointf_s, %struct.pointf_s, i8, i8, i8, i8, i8, i8, %struct.pointf_s, %struct.pointf_s, ptr, ptr, ptr, ptr, ptr, ptr, i64, ptr }
%struct.gvplugin_active_render_s = type { ptr, i32, ptr, ptr }
%struct.gvplugin_active_device_s = type { ptr, i32, ptr, ptr }
%struct.gvplugin_active_loadimage_t = type { ptr, i32, ptr }
%struct.point = type { i32, i32 }
%struct.boxf = type { %struct.pointf_s, %struct.pointf_s }
%struct.box = type { %struct.point, %struct.point }
%struct.pointf_s = type { double, double }

@.str.12 = private unnamed_addr constant [1 x i8] zeroinitializer, align 1
@N_layer = external global ptr, align 8
@E_layer = external global ptr, align 8

; Function Attrs: nounwind uwtable
define internal zeroext i1 @selectedlayer(ptr noundef %0, ptr noundef %1) #0 {
  %3 = alloca ptr, align 8
  %4 = alloca ptr, align 8
  store ptr %0, ptr %3, align 8, !tbaa !12
  store ptr %1, ptr %4, align 8, !tbaa !9
  %5 = load ptr, ptr %3, align 8, !tbaa !12
  %6 = getelementptr inbounds nuw %struct.GVJ_s, ptr %5, i32 0, i32 0
  %7 = load ptr, ptr %6, align 8, !tbaa !69
  %8 = load ptr, ptr %3, align 8, !tbaa !12
  %9 = getelementptr inbounds nuw %struct.GVJ_s, ptr %8, i32 0, i32 28
  %10 = load i32, ptr %9, align 8, !tbaa !101
  %11 = load ptr, ptr %3, align 8, !tbaa !12
  %12 = getelementptr inbounds nuw %struct.GVJ_s, ptr %11, i32 0, i32 27
  %13 = load i32, ptr %12, align 4, !tbaa !214
  %14 = load ptr, ptr %4, align 8, !tbaa !9
  %15 = call zeroext i1 @selectedLayer(ptr noundef %7, i32 noundef %10, i32 noundef %13, ptr noundef %14)
  ret i1 %15
}

; Function Attrs: nounwind uwtable
define internal zeroext i1 @node_in_layer(ptr noundef %0, ptr noundef %1, ptr noundef %2) #0 {
  %4 = alloca i1, align 1
  %5 = alloca ptr, align 8
  %6 = alloca ptr, align 8
  %7 = alloca ptr, align 8
  %8 = alloca ptr, align 8
  %9 = alloca ptr, align 8
  %10 = alloca ptr, align 8
  %11 = alloca i32, align 4
  store ptr %0, ptr %5, align 8, !tbaa !12
  store ptr %1, ptr %6, align 8, !tbaa !3
  store ptr %2, ptr %7, align 8, !tbaa !192
  call void @llvm.lifetime.start.p0(i64 8, ptr %8) #15
  call void @llvm.lifetime.start.p0(i64 8, ptr %9) #15
  call void @llvm.lifetime.start.p0(i64 8, ptr %10) #15
  %12 = load ptr, ptr %5, align 8, !tbaa !12
  %13 = getelementptr inbounds nuw %struct.GVJ_s, ptr %12, i32 0, i32 27
  %14 = load i32, ptr %13, align 4, !tbaa !214
  %15 = icmp sle i32 %14, 1
  br i1 %15, label %16, label %17

16:                                               ; preds = %3
  store i1 true, ptr %4, align 1
  store i32 1, ptr %11, align 4
  br label %65

17:                                               ; preds = %3
  %18 = load ptr, ptr %7, align 8, !tbaa !192
  %19 = load ptr, ptr @N_layer, align 8, !tbaa !232
  %20 = call ptr @late_string(ptr noundef %18, ptr noundef %19, ptr noundef @.str.12)
  store ptr %20, ptr %8, align 8, !tbaa !9
  %21 = load ptr, ptr %5, align 8, !tbaa !12
  %22 = load ptr, ptr %8, align 8, !tbaa !9
  %23 = call zeroext i1 @selectedlayer(ptr noundef %21, ptr noundef %22)
  br i1 %23, label %24, label %25

24:                                               ; preds = %17
  store i1 true, ptr %4, align 1
  store i32 1, ptr %11, align 4
  br label %65

25:                                               ; preds = %17
  %26 = load ptr, ptr %8, align 8, !tbaa !9
  %27 = getelementptr inbounds i8, ptr %26, i64 0
  %28 = load i8, ptr %27, align 1, !tbaa !11
  %29 = icmp ne i8 %28, 0
  br i1 %29, label %30, label %31

30:                                               ; preds = %25
  store i1 false, ptr %4, align 1
  store i32 1, ptr %11, align 4
  br label %65

31:                                               ; preds = %25
  %32 = load ptr, ptr %6, align 8, !tbaa !3
  %33 = load ptr, ptr %7, align 8, !tbaa !192
  %34 = call ptr @agfstedge(ptr noundef %32, ptr noundef %33)
  store ptr %34, ptr %10, align 8, !tbaa !207
  %35 = icmp eq ptr %34, null
  br i1 %35, label %36, label %37

36:                                               ; preds = %31
  store i1 true, ptr %4, align 1
  store i32 1, ptr %11, align 4
  br label %65

37:                                               ; preds = %31
  %38 = load ptr, ptr %6, align 8, !tbaa !3
  %39 = load ptr, ptr %7, align 8, !tbaa !192
  %40 = call ptr @agfstedge(ptr noundef %38, ptr noundef %39)
  store ptr %40, ptr %10, align 8, !tbaa !207
  br label %41

41:                                               ; preds = %59, %37
  %42 = load ptr, ptr %10, align 8, !tbaa !207
  %43 = icmp ne ptr %42, null
  br i1 %43, label %44, label %64

44:                                               ; preds = %41
  %45 = load ptr, ptr %10, align 8, !tbaa !207
  %46 = load ptr, ptr @E_layer, align 8, !tbaa !232
  %47 = call ptr @late_string(ptr noundef %45, ptr noundef %46, ptr noundef @.str.12)
  store ptr %47, ptr %9, align 8, !tbaa !9
  %48 = load ptr, ptr %9, align 8, !tbaa !9
  %49 = getelementptr inbounds i8, ptr %48, i64 0
  %50 = load i8, ptr %49, align 1, !tbaa !11
  %51 = sext i8 %50 to i32
  %52 = icmp eq i32 %51, 0
  br i1 %52, label %57, label %53

53:                                               ; preds = %44
  %54 = load ptr, ptr %5, align 8, !tbaa !12
  %55 = load ptr, ptr %9, align 8, !tbaa !9
  %56 = call zeroext i1 @selectedlayer(ptr noundef %54, ptr noundef %55)
  br i1 %56, label %57, label %58

57:                                               ; preds = %53, %44
  store i1 true, ptr %4, align 1
  store i32 1, ptr %11, align 4
  br label %65

58:                                               ; preds = %53
  br label %59

59:                                               ; preds = %58
  %60 = load ptr, ptr %6, align 8, !tbaa !3
  %61 = load ptr, ptr %10, align 8, !tbaa !207
  %62 = load ptr, ptr %7, align 8, !tbaa !192
  %63 = call ptr @agnxtedge(ptr noundef %60, ptr noundef %61, ptr noundef %62)
  store ptr %63, ptr %10, align 8, !tbaa !207
  br label %41, !llvm.loop !411

64:                                               ; preds = %41
  store i1 false, ptr %4, align 1
  store i32 1, ptr %11, align 4
  br label %65

65:                                               ; preds = %64, %57, %36, %30, %24, %16
  call void @llvm.lifetime.end.p0(i64 8, ptr %10) #15
  call void @llvm.lifetime.end.p0(i64 8, ptr %9) #15
  call void @llvm.lifetime.end.p0(i64 8, ptr %8) #15
  %66 = load i1, ptr %4, align 1
  ret i1 %66
}