; Function Attrs: nounwind uwtable
define internal fastcc noundef zeroext i1 @node_in_layer(ptr noundef readonly captures(none) %0, ptr noundef %1, ptr noundef %2) unnamed_addr #0 {
  %4 = getelementptr inbounds nuw i8, ptr %0, i64 284
  %5 = load i32, ptr %4, align 4, !tbaa !216
  %6 = icmp slt i32 %5, 2
  br i1 %6, label %.loopexit, label %7

7:                                                ; preds = %3
  %8 = load ptr, ptr @N_layer, align 8, !tbaa !252
  %9 = tail call ptr @late_string(ptr noundef %2, ptr noundef %8, ptr noundef nonnull @.str.12) #27
  %10 = load ptr, ptr %0, align 8, !tbaa !62
  %11 = getelementptr inbounds nuw i8, ptr %0, i64 288
  %12 = load i32, ptr %11, align 8, !tbaa !95
  %13 = load i32, ptr %4, align 4, !tbaa !216
  %14 = tail call fastcc noundef zeroext i1 @selectedLayer(ptr noundef %10, i32 noundef %12, i32 noundef %13, ptr noundef readonly %9)
  br i1 %14, label %.loopexit, label %15

15:                                               ; preds = %7
  %16 = load i8, ptr %9, align 1, !tbaa !3
  %.not = icmp eq i8 %16, 0
  br i1 %.not, label %17, label %.loopexit

17:                                               ; preds = %15
  %18 = tail call ptr @agfstedge(ptr noundef %1, ptr noundef %2) #27
  %19 = icmp eq ptr %18, null
  br i1 %19, label %.loopexit, label %20

20:                                               ; preds = %17
  %21 = tail call ptr @agfstedge(ptr noundef %1, ptr noundef %2) #27
  %.not1920 = icmp eq ptr %21, null
  br i1 %.not1920, label %.loopexit, label %.lr.ph

.lr.ph:                                           ; preds = %20, %31
  %.021 = phi ptr [ %32, %31 ], [ %21, %20 ]
  %22 = load ptr, ptr @E_layer, align 8, !tbaa !252
  %23 = tail call ptr @late_string(ptr noundef nonnull %.021, ptr noundef %22, ptr noundef nonnull @.str.12) #27
  %24 = load i8, ptr %23, align 1, !tbaa !3
  %25 = icmp eq i8 %24, 0
  br i1 %25, label %.loopexit, label %26

26:                                               ; preds = %.lr.ph
  %27 = load ptr, ptr %0, align 8, !tbaa !62
  %28 = load i32, ptr %11, align 8, !tbaa !95
  %29 = load i32, ptr %4, align 4, !tbaa !216
  %30 = tail call fastcc noundef zeroext i1 @selectedLayer(ptr noundef %27, i32 noundef %28, i32 noundef %29, ptr noundef nonnull readonly %23)
  br i1 %30, label %.loopexit, label %31

31:                                               ; preds = %26
  %32 = tail call ptr @agnxtedge(ptr noundef %1, ptr noundef nonnull %.021, ptr noundef %2) #27
  %.not19 = icmp eq ptr %32, null
  br i1 %.not19, label %.loopexit, label %.lr.ph, !llvm.loop !498

.loopexit:                                        ; preds = %26, %.lr.ph, %31, %20, %17, %15, %7, %3
  %.018 = phi i1 [ true, %3 ], [ true, %7 ], [ false, %15 ], [ true, %17 ], [ false, %20 ], [ true, %26 ], [ true, %.lr.ph ], [ false, %31 ]
  ret i1 %.018
}